Certificate:
    Data:
        Version: 3 (0x2)
        Serial Number: 0 (0x0)
        Signature Algorithm: md5WithRSAEncryption
        Issuer: C=DE, ST=Germany, L=Berlin, O=World domination. Fast., CN=bytesex.org mini ca/Email=kraxel@bytesex.org
        Validity
            Not Before: Jul 27 13:21:29 2002 GMT
            Not After : Jul 26 13:21:29 2007 GMT
        Subject: C=DE, ST=Germany, L=Berlin, O=World domination. Fast., CN=bytesex.org mini ca/Email=kraxel@bytesex.org
        Subject Public Key Info:
            Public Key Algorithm: rsaEncryption
            RSA Public Key: (1024 bit)
                Modulus (1024 bit):
                    00:c4:f7:a1:38:df:c9:ef:45:da:39:d1:28:ea:da:
                    6f:09:33:e0:be:90:c9:51:47:6c:af:1e:28:92:f5:
                    48:f8:8a:ee:62:cd:58:7e:4e:5e:89:65:ba:12:e8:
                    40:aa:a7:8b:0c:d2:b9:b7:56:b7:39:80:9c:32:84:
                    44:3f:6d:71:cb:33:53:fc:f6:4c:c3:3e:08:78:81:
                    e6:9c:11:8a:39:98:11:d2:39:1c:00:cb:37:11:a9:
                    05:73:b1:8c:79:80:03:8e:74:b5:98:6f:66:0b:bb:
                    c8:27:c9:0e:a8:fb:41:99:8e:3f:06:a3:a7:52:06:
                    91:85:3b:20:a3:00:ad:4e:05
                Exponent: 65537 (0x10001)
        X509v3 extensions:
            X509v3 Basic Constraints: 
                CA:TRUE
            Netscape Cert Type: 
                SSL CA, S/MIME CA, Object Signing CA
            Netscape Comment: 
                This is a *TEST* root CA, everything gets signed.
    Signature Algorithm: md5WithRSAEncryption
        14:dd:be:57:94:bb:14:80:22:3b:44:7f:ac:b2:1c:4c:0f:60:
        3d:5e:a7:89:27:1c:69:c7:a1:8d:bb:9d:cd:a4:c4:a2:11:6c:
        ce:a0:1e:c4:f8:1e:6b:28:a4:b1:ee:4d:5d:36:7e:e1:92:58:
        e1:39:0a:23:df:40:0a:b7:04:ba:b4:09:3c:f6:47:a0:14:21:
        e3:6e:42:10:89:04:98:8c:14:93:ad:cd:60:e2:98:c6:46:27:
        0f:f5:ac:7d:42:5f:71:6f:4e:15:95:be:38:20:f9:76:be:9b:
        9a:8f:f1:8b:a6:20:5e:c4:76:f1:b2:a0:94:cf:43:0f:b4:a6:
        07:e1
-----BEGIN CERTIFICATE-----
MIIDAzCCAmygAwIBAgIBADANBgkqhkiG9w0BAQQFADCBkzELMAkGA1UEBhMCREUx
EDAOBgNVBAgTB0dlcm1hbnkxDzANBgNVBAcTBkJlcmxpbjEgMB4GA1UEChMXV29y
bGQgZG9taW5hdGlvbi4gRmFzdC4xHDAaBgNVBAMTE2J5dGVzZXgub3JnIG1pbmkg
Y2ExITAfBgkqhkiG9w0BCQEWEmtyYXhlbEBieXRlc2V4Lm9yZzAeFw0wMjA3Mjcx
MzIxMjlaFw0wNzA3MjYxMzIxMjlaMIGTMQswCQYDVQQGEwJERTEQMA4GA1UECBMH
R2VybWFueTEPMA0GA1UEBxMGQmVybGluMSAwHgYDVQQKExdXb3JsZCBkb21pbmF0
aW9uLiBGYXN0LjEcMBoGA1UEAxMTYnl0ZXNleC5vcmcgbWluaSBjYTEhMB8GCSqG
SIb3DQEJARYSa3JheGVsQGJ5dGVzZXgub3JnMIGfMA0GCSqGSIb3DQEBAQUAA4GN
ADCBiQKBgQDE96E438nvRdo50Sjq2m8JM+C+kMlRR2yvHiiS9Uj4iu5izVh+Tl6J
ZboS6ECqp4sM0rm3Vrc5gJwyhEQ/bXHLM1P89kzDPgh4geacEYo5mBHSORwAyzcR
qQVzsYx5gAOOdLWYb2YLu8gnyQ6o+0GZjj8Go6dSBpGFOyCjAK1OBQIDAQABo2Uw
YzAMBgNVHRMEBTADAQH/MBEGCWCGSAGG+EIBAQQEAwIABzBABglghkgBhvhCAQ0E
MxYxVGhpcyBpcyBhICpURVNUKiByb290IENBLCBldmVyeXRoaW5nIGdldHMgc2ln
bmVkLjANBgkqhkiG9w0BAQQFAAOBgQAU3b5XlLsUgCI7RH+sshxMD2A9XqeJJxxp
x6GNu53NpMSiEWzOoB7E+B5rKKSx7k1dNn7hkljhOQoj30AKtwS6tAk89kegFCHj
bkIQiQSYjBSTrc1g4pjGRicP9ax9Ql9xb04Vlb44IPl2vpuaj/GLpiBexHbxsqCU
z0MPtKYH4Q==
-----END CERTIFICATE-----
