Certificate:
    Data:
        Version: 3 (0x2)
        Serial Number: 2 (0x2)
        Signature Algorithm: md5WithRSAEncryption
        Issuer: C=DE, ST=Germany, L=Berlin, O=World domination. Fast., CN=bytesex.org mini ca/Email=kraxel@bytesex.org
        Validity
            Not Before: Jul 27 13:34:31 2002 GMT
            Not After : Jul 26 13:34:31 2004 GMT
        Subject: C=DE, ST=World, L=some city somewhere, O=webfsd fan group, CN=localhost/Email=root@localhost
        Subject Public Key Info:
            Public Key Algorithm: rsaEncryption
            RSA Public Key: (1024 bit)
                Modulus (1024 bit):
                    00:e4:e6:c1:f4:b9:59:6f:c6:81:c6:5f:cb:4b:4b:
                    b5:68:3c:2d:cf:bf:c6:5f:38:bb:e4:f2:16:0b:fa:
                    dc:ec:41:95:f6:c7:77:78:c8:a2:06:e7:4b:21:6c:
                    77:2f:48:97:d6:ee:df:4e:f1:4f:6a:43:bf:01:99:
                    2a:04:54:39:d9:68:0f:21:61:c4:5c:6b:67:49:77:
                    e0:85:80:75:ba:77:06:fd:b6:a7:c3:b8:06:0b:ac:
                    13:d3:00:eb:dc:18:ae:09:9d:fc:2e:43:28:b8:1c:
                    da:cb:3b:e3:2d:e0:60:8a:de:f3:24:92:81:0a:16:
                    8b:9f:aa:9a:1b:09:0c:3c:2f
                Exponent: 65537 (0x10001)
        X509v3 extensions:
            X509v3 Basic Constraints: 
                CA:FALSE
            Netscape Cert Type: 
                SSL Server
            Netscape Comment: 
                This is a *TEST* server certificate.
    Signature Algorithm: md5WithRSAEncryption
        39:ef:00:3c:1b:2f:cd:c1:6e:3c:da:6a:b4:7b:d1:a9:46:b6:
        f1:20:7b:fe:77:4b:f6:0e:bc:41:0d:63:1d:d1:f6:f9:37:83:
        cf:93:d3:ec:3a:e2:5b:7e:70:7a:de:6f:7a:fb:ee:59:d7:e8:
        f0:d3:ea:81:f1:09:00:a4:e7:c2:ec:3c:8d:7c:19:85:47:6a:
        76:63:c7:ce:68:95:79:dd:c7:2a:39:5f:df:0c:51:2d:22:29:
        93:c4:ed:90:1b:54:cf:27:10:7c:7c:bf:4a:32:18:9f:2e:02:
        8a:cb:6f:c9:69:b3:e1:ef:e3:0d:98:1e:a3:22:80:54:84:05:
        15:ff
-----BEGIN CERTIFICATE-----
MIIC6TCCAlKgAwIBAgIBAjANBgkqhkiG9w0BAQQFADCBkzELMAkGA1UEBhMCREUx
EDAOBgNVBAgTB0dlcm1hbnkxDzANBgNVBAcTBkJlcmxpbjEgMB4GA1UEChMXV29y
bGQgZG9taW5hdGlvbi4gRmFzdC4xHDAaBgNVBAMTE2J5dGVzZXgub3JnIG1pbmkg
Y2ExITAfBgkqhkiG9w0BCQEWEmtyYXhlbEBieXRlc2V4Lm9yZzAeFw0wMjA3Mjcx
MzM0MzFaFw0wNDA3MjYxMzM0MzFaMIGJMQswCQYDVQQGEwJERTEOMAwGA1UECBMF
V29ybGQxHDAaBgNVBAcTE3NvbWUgY2l0eSBzb21ld2hlcmUxGTAXBgNVBAoTEHdl
YmZzZCBmYW4gZ3JvdXAxEjAQBgNVBAMTCWxvY2FsaG9zdDEdMBsGCSqGSIb3DQEJ
ARYOcm9vdEBsb2NhbGhvc3QwgZ8wDQYJKoZIhvcNAQEBBQADgY0AMIGJAoGBAOTm
wfS5WW/GgcZfy0tLtWg8Lc+/xl84u+TyFgv63OxBlfbHd3jIogbnSyFsdy9Il9bu
307xT2pDvwGZKgRUOdloDyFhxFxrZ0l34IWAdbp3Bv22p8O4BgusE9MA69wYrgmd
/C5DKLgc2ss74y3gYIre8ySSgQoWi5+qmhsJDDwvAgMBAAGjVTBTMAkGA1UdEwQC
MAAwEQYJYIZIAYb4QgEBBAQDAgZAMDMGCWCGSAGG+EIBDQQmFiRUaGlzIGlzIGEg
KlRFU1QqIHNlcnZlciBjZXJ0aWZpY2F0ZS4wDQYJKoZIhvcNAQEEBQADgYEAOe8A
PBsvzcFuPNpqtHvRqUa28SB7/ndL9g68QQ1jHdH2+TeDz5PT7DriW35wet5vevvu
Wdfo8NPqgfEJAKTnwuw8jXwZhUdqdmPHzmiVed3HKjlf3wxRLSIpk8TtkBtUzycQ
fHy/SjIYny4CistvyWmz4e/jDZgeoyKAVIQFFf8=
-----END CERTIFICATE-----
-----BEGIN RSA PRIVATE KEY-----
MIICXwIBAAKBgQDk5sH0uVlvxoHGX8tLS7VoPC3Pv8ZfOLvk8hYL+tzsQZX2x3d4
yKIG50shbHcvSJfW7t9O8U9qQ78BmSoEVDnZaA8hYcRca2dJd+CFgHW6dwb9tqfD
uAYLrBPTAOvcGK4JnfwuQyi4HNrLO+Mt4GCK3vMkkoEKFoufqpobCQw8LwIDAQAB
AoGBAN1o1/N/1aLowF7CCkKq2K4ah7WMKrWwiw7Jm8m6vjdIuWYbStTqPM+wqluK
Lz7tWPHt3NLfV5HSNc+19454afqs3NH7bNruUYpvfih2t/3mDuVggq4DemAgrnm/
afYchlDvEttDgpXzYoSSDb2D11HxQM6XndkI21xl6mp9zdEBAkEA9+m4tSO8qVSr
dicBis5uN4UaMVx0ySWn85sqoIFJLMi53ZCuHmi8v7p6VKTYuHwGYEZ56R5FToVu
3Fz846Ra9QJBAOxeRhKXvwz5cnPtXkUgbh0UxkDFXqyMgZeWqTmiDgya0nGTY+Gw
gEAUlrt9l2DtWKbq9HsziIi/3pyWeh9+DBMCQQDBG5xV9L1bROm+QgnwfnXZ52MM
uhD6McvOdLpShgJi0QP+c1k9tKX5zp7FWha6NVmeGqeRj5O64zMEkaYnB/oVAkEA
hYkpK13hiJHwsD+9D26n5vQSoQsgVnk2yY5LYo0EROi+1X2AY0PU4N8A3UGx4QeW
Gw8IOgY+L4u+V1bH/by3UwJBANYKCGRtJ5fAipTlY+DfRpbUwE+P///JX8b8sQhc
BIkPBR6C2jvQ9wC1MWiHp/kFvKyT+ul1T3rGnWugm+OTdhQ=
-----END RSA PRIVATE KEY-----
